target datalayout = "e-m:e-p270:32:32-p271:32:32-p272:64:64-i64:64-i128:128-f80:128-n8:16:32:64-S128"
target triple = "x86_64-pc-linux-gnu"

%class.b3TriangleIndexVertexArray = type { %class.b3StridingMeshInterface, %class.b3AlignedObjectArray, [2 x i32], i32, [4 x i8], %class.b3Vector3, %class.b3Vector3 }
%class.b3StridingMeshInterface = type { ptr, [8 x i8], %class.b3Vector3 }
%class.b3AlignedObjectArray = type <{ [4 x i8], i32, i32, [4 x i8], ptr, i8, [7 x i8] }>
%class.b3Vector3 = type { %union.anon }
%union.anon = type { [4 x float] }

; Function Attrs: mustprogress nounwind uwtable
define dso_local void @_ZNK26b3TriangleIndexVertexArray14setPremadeAabbERK9b3Vector3S2_(ptr noundef nonnull align 16 dereferenceable(112) %0, ptr noundef nonnull align 16 dereferenceable(16) %1, ptr noundef nonnull align 16 dereferenceable(16) %2) unnamed_addr #3 align 2 {
  %4 = alloca ptr, align 8
  %5 = alloca ptr, align 8
  %6 = alloca ptr, align 8
  store ptr %0, ptr %4, align 8, !tbaa !4
  store ptr %1, ptr %5, align 8, !tbaa !47
  store ptr %2, ptr %6, align 8, !tbaa !47
  %7 = load ptr, ptr %4, align 8
  %8 = load ptr, ptr %5, align 8, !tbaa !47
  %9 = getelementptr inbounds nuw %class.b3TriangleIndexVertexArray, ptr %7, i32 0, i32 5
  call void @llvm.memcpy.p0.p0.i64(ptr align 16 %9, ptr align 16 %8, i64 16, i1 false), !tbaa.struct !49
  %10 = load ptr, ptr %6, align 8, !tbaa !47
  %11 = getelementptr inbounds nuw %class.b3TriangleIndexVertexArray, ptr %7, i32 0, i32 6
  call void @llvm.memcpy.p0.p0.i64(ptr align 16 %11, ptr align 16 %10, i64 16, i1 false), !tbaa.struct !49
  %12 = getelementptr inbounds nuw %class.b3TriangleIndexVertexArray, ptr %7, i32 0, i32 3
  store i32 1, ptr %12, align 8, !tbaa !17
  ret void
}