; Function Attrs: mustprogress nofree norecurse nosync nounwind willreturn memory(argmem: readwrite) uwtable
define dso_local void @_ZNK26b3TriangleIndexVertexArray14setPremadeAabbERK9b3Vector3S2_(ptr noundef nonnull writeonly align 16 captures(none) dereferenceable(112) initializes((72, 76), (80, 112)) %0, ptr noundef nonnull readonly align 16 captures(none) dereferenceable(16) %1, ptr noundef nonnull readonly align 16 captures(none) dereferenceable(16) %2) unnamed_addr #6 align 2 {
  %4 = getelementptr inbounds nuw i8, ptr %0, i64 80
  tail call void @llvm.memcpy.p0.p0.i64(ptr noundef nonnull align 16 dereferenceable(16) %4, ptr noundef nonnull align 16 dereferenceable(16) %1, i64 16, i1 false), !tbaa.struct !38
  %5 = getelementptr inbounds nuw i8, ptr %0, i64 96
  tail call void @llvm.memcpy.p0.p0.i64(ptr noundef nonnull align 16 dereferenceable(16) %5, ptr noundef nonnull align 16 dereferenceable(16) %2, i64 16, i1 false), !tbaa.struct !38
  %6 = getelementptr inbounds nuw i8, ptr %0, i64 72
  store i32 1, ptr %6, align 8, !tbaa !18
  ret void
}